target datalayout = "e-m:e-p270:32:32-p271:32:32-p272:64:64-i64:64-i128:128-f80:128-n8:16:32:64-S128"
target triple = "x86_64-pc-linux-gnu"

%"class.LIEF::MachO::DyldBindingInfo" = type { %"class.LIEF::MachO::BindingInfo", i64, i64, i8, i64 }
%"class.LIEF::MachO::BindingInfo" = type { %"class.LIEF::Object", ptr, ptr, i32, i64, i8, ptr, i64 }
%"class.LIEF::Object" = type { ptr }

; Function Attrs: inlinehint mustprogress nounwind uwtable
define linkonce_odr void @_ZSt4swapImENSt9enable_ifIXsr6__and_ISt6__not_ISt15__is_tuple_likeIT_EESt21is_move_constructibleIS3_ESt18is_move_assignableIS3_EEE5valueEvE4typeERS3_SC_(ptr noundef nonnull align 8 dereferenceable(8) %0, ptr noundef nonnull align 8 dereferenceable(8) %1) #2 comdat {
  %3 = alloca ptr, align 8
  %4 = alloca ptr, align 8
  %5 = alloca i64, align 8
  store ptr %0, ptr %3, align 8, !tbaa !44
  store ptr %1, ptr %4, align 8, !tbaa !44
  call void @llvm.lifetime.start.p0(i64 8, ptr %5) #7
  %6 = load ptr, ptr %3, align 8, !tbaa !44
  %7 = load i64, ptr %6, align 8, !tbaa !12
  store i64 %7, ptr %5, align 8, !tbaa !12
  %8 = load ptr, ptr %4, align 8, !tbaa !44
  %9 = load i64, ptr %8, align 8, !tbaa !12
  %10 = load ptr, ptr %3, align 8, !tbaa !44
  store i64 %9, ptr %10, align 8, !tbaa !12
  %11 = load i64, ptr %5, align 8, !tbaa !12
  %12 = load ptr, ptr %4, align 8, !tbaa !44
  store i64 %11, ptr %12, align 8, !tbaa !12
  call void @llvm.lifetime.end.p0(i64 8, ptr %5) #7
  ret void
}

; Function Attrs: inlinehint mustprogress nounwind uwtable
define linkonce_odr void @_ZSt4swapIbENSt9enable_ifIXsr6__and_ISt6__not_ISt15__is_tuple_likeIT_EESt21is_move_constructibleIS3_ESt18is_move_assignableIS3_EEE5valueEvE4typeERS3_SC_(ptr noundef nonnull align 1 dereferenceable(1) %0, ptr noundef nonnull align 1 dereferenceable(1) %1) #2 comdat {
  %3 = alloca ptr, align 8
  %4 = alloca ptr, align 8
  %5 = alloca i8, align 1
  store ptr %0, ptr %3, align 8, !tbaa !42
  store ptr %1, ptr %4, align 8, !tbaa !42
  call void @llvm.lifetime.start.p0(i64 1, ptr %5) #7
  %6 = load ptr, ptr %3, align 8, !tbaa !42
  %7 = load i8, ptr %6, align 1, !tbaa !16, !range !28, !noundef !29
  %8 = trunc i8 %7 to i1
  %9 = zext i1 %8 to i8
  store i8 %9, ptr %5, align 1, !tbaa !16
  %10 = load ptr, ptr %4, align 8, !tbaa !42
  %11 = load i8, ptr %10, align 1, !tbaa !16, !range !28, !noundef !29
  %12 = trunc i8 %11 to i1
  %13 = load ptr, ptr %3, align 8, !tbaa !42
  %14 = zext i1 %12 to i8
  store i8 %14, ptr %13, align 1, !tbaa !16
  %15 = load i8, ptr %5, align 1, !tbaa !16, !range !28, !noundef !29
  %16 = trunc i8 %15 to i1
  %17 = load ptr, ptr %4, align 8, !tbaa !42
  %18 = zext i1 %16 to i8
  store i8 %18, ptr %17, align 1, !tbaa !16
  call void @llvm.lifetime.end.p0(i64 1, ptr %5) #7
  ret void
}

; Function Attrs: inlinehint mustprogress nounwind uwtable
define linkonce_odr void @_ZSt4swapIN4LIEF5MachO15DyldBindingInfo4TYPEEENSt9enable_ifIXsr6__and_ISt6__not_ISt15__is_tuple_likeIT_EESt21is_move_constructibleIS7_ESt18is_move_assignableIS7_EEE5valueEvE4typeERS7_SG_(ptr noundef nonnull align 8 dereferenceable(8) %0, ptr noundef nonnull align 8 dereferenceable(8) %1) #2 comdat {
  %3 = alloca ptr, align 8
  %4 = alloca ptr, align 8
  %5 = alloca i64, align 8
  store ptr %0, ptr %3, align 8, !tbaa !41
  store ptr %1, ptr %4, align 8, !tbaa !41
  call void @llvm.lifetime.start.p0(i64 8, ptr %5) #7
  %6 = load ptr, ptr %3, align 8, !tbaa !41
  %7 = load i64, ptr %6, align 8, !tbaa !10
  store i64 %7, ptr %5, align 8, !tbaa !10
  %8 = load ptr, ptr %4, align 8, !tbaa !41
  %9 = load i64, ptr %8, align 8, !tbaa !10
  %10 = load ptr, ptr %3, align 8, !tbaa !41
  store i64 %9, ptr %10, align 8, !tbaa !10
  %11 = load i64, ptr %5, align 8, !tbaa !10
  %12 = load ptr, ptr %4, align 8, !tbaa !41
  store i64 %11, ptr %12, align 8, !tbaa !10
  call void @llvm.lifetime.end.p0(i64 8, ptr %5) #7
  ret void
}

; Function Attrs: inlinehint mustprogress nounwind uwtable
define linkonce_odr void @_ZSt4swapIN4LIEF5MachO15DyldBindingInfo5CLASSEENSt9enable_ifIXsr6__and_ISt6__not_ISt15__is_tuple_likeIT_EESt21is_move_constructibleIS7_ESt18is_move_assignableIS7_EEE5valueEvE4typeERS7_SG_(ptr noundef nonnull align 8 dereferenceable(8) %0, ptr noundef nonnull align 8 dereferenceable(8) %1) #2 comdat {
  %3 = alloca ptr, align 8
  %4 = alloca ptr, align 8
  %5 = alloca i64, align 8
  store ptr %0, ptr %3, align 8, !tbaa !41
  store ptr %1, ptr %4, align 8, !tbaa !41
  call void @llvm.lifetime.start.p0(i64 8, ptr %5) #7
  %6 = load ptr, ptr %3, align 8, !tbaa !41
  %7 = load i64, ptr %6, align 8, !tbaa !8
  store i64 %7, ptr %5, align 8, !tbaa !8
  %8 = load ptr, ptr %4, align 8, !tbaa !41
  %9 = load i64, ptr %8, align 8, !tbaa !8
  %10 = load ptr, ptr %3, align 8, !tbaa !41
  store i64 %9, ptr %10, align 8, !tbaa !8
  %11 = load i64, ptr %5, align 8, !tbaa !8
  %12 = load ptr, ptr %4, align 8, !tbaa !41
  store i64 %11, ptr %12, align 8, !tbaa !8
  call void @llvm.lifetime.end.p0(i64 8, ptr %5) #7
  ret void
}

; Function Attrs: mustprogress nounwind uwtable
define void @_ZN4LIEF5MachO15DyldBindingInfo4swapERS1_(ptr noundef nonnull align 8 dereferenceable(96) %0, ptr noundef nonnull align 8 dereferenceable(96) %1) #0 align 2 {
  %3 = alloca ptr, align 8
  %4 = alloca ptr, align 8
  store ptr %0, ptr %3, align 8, !tbaa !3
  store ptr %1, ptr %4, align 8, !tbaa !3
  %5 = load ptr, ptr %3, align 8
  %6 = load ptr, ptr %4, align 8, !tbaa !3
  call void @_ZN4LIEF5MachO11BindingInfo4swapERS1_(ptr noundef nonnull align 8 dereferenceable(64) %5, ptr noundef nonnull align 8 dereferenceable(64) %6) #7
  %7 = getelementptr inbounds nuw %"class.LIEF::MachO::DyldBindingInfo", ptr %5, i32 0, i32 1
  %8 = load ptr, ptr %4, align 8, !tbaa !3
  %9 = getelementptr inbounds nuw %"class.LIEF::MachO::DyldBindingInfo", ptr %8, i32 0, i32 1
  call void @_ZSt4swapIN4LIEF5MachO15DyldBindingInfo5CLASSEENSt9enable_ifIXsr6__and_ISt6__not_ISt15__is_tuple_likeIT_EESt21is_move_constructibleIS7_ESt18is_move_assignableIS7_EEE5valueEvE4typeERS7_SG_(ptr noundef nonnull align 8 dereferenceable(8) %7, ptr noundef nonnull align 8 dereferenceable(8) %9) #7
  %10 = getelementptr inbounds nuw %"class.LIEF::MachO::DyldBindingInfo", ptr %5, i32 0, i32 2
  %11 = load ptr, ptr %4, align 8, !tbaa !3
  %12 = getelementptr inbounds nuw %"class.LIEF::MachO::DyldBindingInfo", ptr %11, i32 0, i32 2
  call void @_ZSt4swapIN4LIEF5MachO15DyldBindingInfo4TYPEEENSt9enable_ifIXsr6__and_ISt6__not_ISt15__is_tuple_likeIT_EESt21is_move_constructibleIS7_ESt18is_move_assignableIS7_EEE5valueEvE4typeERS7_SG_(ptr noundef nonnull align 8 dereferenceable(8) %10, ptr noundef nonnull align 8 dereferenceable(8) %12) #7
  %13 = getelementptr inbounds nuw %"class.LIEF::MachO::DyldBindingInfo", ptr %5, i32 0, i32 3
  %14 = load ptr, ptr %4, align 8, !tbaa !3
  %15 = getelementptr inbounds nuw %"class.LIEF::MachO::DyldBindingInfo", ptr %14, i32 0, i32 3
  call void @_ZSt4swapIbENSt9enable_ifIXsr6__and_ISt6__not_ISt15__is_tuple_likeIT_EESt21is_move_constructibleIS3_ESt18is_move_assignableIS3_EEE5valueEvE4typeERS3_SC_(ptr noundef nonnull align 1 dereferenceable(1) %13, ptr noundef nonnull align 1 dereferenceable(1) %15) #7
  %16 = getelementptr inbounds nuw %"class.LIEF::MachO::DyldBindingInfo", ptr %5, i32 0, i32 4
  %17 = load ptr, ptr %4, align 8, !tbaa !3
  %18 = getelementptr inbounds nuw %"class.LIEF::MachO::DyldBindingInfo", ptr %17, i32 0, i32 4
  call void @_ZSt4swapImENSt9enable_ifIXsr6__and_ISt6__not_ISt15__is_tuple_likeIT_EESt21is_move_constructibleIS3_ESt18is_move_assignableIS3_EEE5valueEvE4typeERS3_SC_(ptr noundef nonnull align 8 dereferenceable(8) %16, ptr noundef nonnull align 8 dereferenceable(8) %18) #7
  ret void
}