; Function Attrs: mustprogress nounwind uwtable
define void @_ZN4LIEF5MachO15DyldBindingInfo4swapERS1_(ptr noundef nonnull align 8 dereferenceable(96) %0, ptr noundef nonnull align 8 dereferenceable(96) %1) local_unnamed_addr #0 align 2 {
  tail call void @_ZN4LIEF5MachO11BindingInfo4swapERS1_(ptr noundef nonnull align 8 dereferenceable(64) %0, ptr noundef nonnull align 8 dereferenceable(64) %1) #6
  %3 = getelementptr inbounds nuw i8, ptr %0, i64 64
  %4 = getelementptr inbounds nuw i8, ptr %1, i64 64
  %5 = load i64, ptr %3, align 8, !tbaa !27
  %6 = load i64, ptr %4, align 8, !tbaa !27
  store i64 %6, ptr %3, align 8, !tbaa !27
  store i64 %5, ptr %4, align 8, !tbaa !27
  %7 = getelementptr inbounds nuw i8, ptr %0, i64 72
  %8 = getelementptr inbounds nuw i8, ptr %1, i64 72
  %9 = load i64, ptr %7, align 8, !tbaa !28
  %10 = load i64, ptr %8, align 8, !tbaa !28
  store i64 %10, ptr %7, align 8, !tbaa !28
  store i64 %9, ptr %8, align 8, !tbaa !28
  %11 = getelementptr inbounds nuw i8, ptr %0, i64 80
  %12 = getelementptr inbounds nuw i8, ptr %1, i64 80
  %13 = load i8, ptr %11, align 8, !tbaa !29, !range !30, !noundef !31
  %14 = load i8, ptr %12, align 8, !tbaa !29, !range !30, !noundef !31
  store i8 %14, ptr %11, align 8, !tbaa !29
  store i8 %13, ptr %12, align 8, !tbaa !29
  %15 = getelementptr inbounds nuw i8, ptr %0, i64 88
  %16 = getelementptr inbounds nuw i8, ptr %1, i64 88
  %17 = load i64, ptr %15, align 8, !tbaa !32
  %18 = load i64, ptr %16, align 8, !tbaa !32
  store i64 %18, ptr %15, align 8, !tbaa !32
  store i64 %17, ptr %16, align 8, !tbaa !32
  ret void
}